---------------------------------------------
PIC ASSEMBLER LISTING
Line    Address Opcode  Instruction
---------------------------------------------
0001    0000            ; Compiled with: PIC Simulator IDE v8.55
0002    0000            ; Microcontroller model: PIC16F877A
0003    0000            ; Clock frequency: 1.0MHz
0004    0000            ;
0005    0000            	R0L EQU 0x020
0006    0000            	R0H EQU 0x021
0007    0000            	R1L EQU 0x022
0008    0000            	R1H EQU 0x023
0009    0000            	R2L EQU 0x024
0010    0000            	R0HL EQU 0x020
0011    0000            	R1HL EQU 0x022
0012    0000            	R1HL0HL EQU 0x020
0013    0000            ;       The address of 'i' (byte) (global) is 0x025
0014    0000            ;       The address of 'auxiliar' (byte) (global) is 0x026
0015    0000            	ORG 0x0000
0016    0000    118A    	BCF PCLATH,3
0017    0001    120A    	BCF PCLATH,4
0018    0002    2805    	GOTO L0002
0019    0003            	ORG 0x0004
0020    0004    0009    	RETFIE
0021    0005            ; User code start
0022    0005            L0002:
0023    0005            ; 1: TRISB = %00111111
0024    0005    303F    	MOVLW 0x3F
0025    0006    1683    	BSF STATUS,RP0
0026    0007    0086    	MOVWF TRISB
0027    0008            ; 2: TRISD = %00000000
0028    0008    0188    	CLRF TRISD
0029    0009    1283    	BCF STATUS,RP0
0030    000A            ; 3: PORTB = 0
0031    000A    0186    	CLRF PORTB
0032    000B            ; 4: PORTD = 0
0033    000B    0188    	CLRF PORTD
0034    000C            ; 5: INTCON = %00000000
0035    000C    018B    	CLRF INTCON
0036    000D            ; 6: Dim i As Byte
0037    000D            ; 7: Dim auxiliar As Byte
0038    000D            ; 8: main:
0039    000D            L0001:
0040    000D            ; 9: For i = 0 To 5 Step 1
0041    000D    01A5    	CLRF 0x025
0042    000E            L0003:
0043    000E    0825    	MOVF 0x025,W
0044    000F    3C05    	SUBLW 0x05
0045    0010    1C03    	BTFSS STATUS,C
0046    0011    2838    	GOTO L0004
0047    0012            ; 10: auxiliar = (1 << i)
0048    0012    3001    	MOVLW 0x01
0049    0013    00A0    	MOVWF R0L
0050    0014    01A1    	CLRF R0H
0051    0015    0825    	MOVF 0x025,W
0052    0016    205B    	CALL SL00
0053    0017    0820    	MOVF R0L,W
0054    0018    00A6    	MOVWF 0x026
0055    0019            ; 11: If PORTB.i = 0 Then
0056    0019    0806    	MOVF PORTB,W
0057    001A    00A2    	MOVWF R1L
0058    001B    01A3    	CLRF R1H
0059    001C    0825    	MOVF 0x025,W
0060    001D    00A1    	MOVWF R0H
0061    001E    203B    	CALL BI01
0062    001F    1822    	BTFSC R1L,0
0063    0020    2832    	GOTO L0005
0064    0021            ; 12: PORTD = (1 << i)
0065    0021    3001    	MOVLW 0x01
0066    0022    00A0    	MOVWF R0L
0067    0023    01A1    	CLRF R0H
0068    0024    0825    	MOVF 0x025,W
0069    0025    205B    	CALL SL00
0070    0026    0820    	MOVF R0L,W
0071    0027    0088    	MOVWF PORTD
0072    0028            ; 13: While PORTB.i = 0
0073    0028            L0006:
0074    0028    0806    	MOVF PORTB,W
0075    0029    00A2    	MOVWF R1L
0076    002A    01A3    	CLRF R1H
0077    002B    0825    	MOVF 0x025,W
0078    002C    00A1    	MOVWF R0H
0079    002D    203B    	CALL BI01
0080    002E    1822    	BTFSC R1L,0
0081    002F    2831    	GOTO L0007
0082    0030            ; 14: Wend
0083    0030    2828    	GOTO L0006
0084    0031            L0007:
0085    0031            ; 15: Else
0086    0031    2834    	GOTO L0008
0087    0032            L0005:
0088    0032            ; 16: PORTD = %10000000
0089    0032    3080    	MOVLW 0x80
0090    0033    0088    	MOVWF PORTD
0091    0034            ; 17: Endif
0092    0034            L0008:
0093    0034            ; 18: Next i
0094    0034    3001    	MOVLW 0x01
0095    0035    07A5    	ADDWF 0x025,F
0096    0036    1C03    	BTFSS STATUS,C
0097    0037    280E    	GOTO L0003
0098    0038            L0004:
0099    0038            ; 19: Goto main
0100    0038    280D    	GOTO L0001
0101    0039            ; 20: End
0102    0039    2839    L0009:	GOTO L0009
0103    003A            ; End of user code
0104    003A    283A    L0010:	GOTO L0010
0105    003B            ;
0106    003B            ;
0107    003B            ; Bit Index Routine
0108    003B    0AA1    BI01:	INCF R0H,F
0109    003C    0DA2    	RLF R1L,F
0110    003D    0DA3    	RLF R1H,F
0111    003E    0CA3    BI02:	RRF R1H,F
0112    003F    0CA2    	RRF R1L,F
0113    0040    0BA1    	DECFSZ R0H,F
0114    0041    283E    	GOTO BI02
0115    0042    0008    	RETURN
0116    0043    3011    BI10:	MOVLW 0x11
0117    0044    00A4    	MOVWF R2L
0118    0045    0AA3    	INCF R1H,F
0119    0046    0DA0    	RLF R0L,F
0120    0047    0DA1    	RLF R0H,F
0121    0048    284C    	GOTO BI11
0122    0049    1003    BI12:	BCF STATUS,C
0123    004A    1820    	BTFSC R0L,0
0124    004B    1403    	BSF STATUS,C
0125    004C    0CA1    BI11:	RRF R0H,F
0126    004D    0CA0    	RRF R0L,F
0127    004E    03A3    	DECF R1H,F
0128    004F    1903    	BTFSC STATUS,Z
0129    0050    2054    	CALL BI13
0130    0051    0BA4    	DECFSZ R2L,F
0131    0052    2849    	GOTO BI12
0132    0053    0008    	RETURN
0133    0054    1020    BI13:	BCF R0L,0
0134    0055    1822    	BTFSC R1L,0
0135    0056    1420    	BSF R0L,0
0136    0057    0008    	RETURN
0137    0058            ;
0138    0058            ;
0139    0058            ; Word ShiftLeft Routine
0140    0058    1003    SL01:	BCF STATUS,C
0141    0059    0DA0    	RLF R0L,F
0142    005A    0DA1    	RLF R0H,F
0143    005B    3EFF    SL00:	ADDLW 0xFF
0144    005C    1803    	BTFSC STATUS,C
0145    005D    2858    	GOTO SL01
0146    005E    0008    	RETURN
0147    005F            ;
0148    005F            ;
0149    005F            ; End of listing
0150    005F            	END
---------------------------------------------
Number of errors = 0
